target datalayout = "e-m:e-p270:32:32-p271:32:32-p272:64:64-i64:64-i128:128-f80:128-n8:16:32:64-S128"
target triple = "x86_64-pc-linux-gnu"

@ReservedCodeCacheSize = external global i64, align 8

; Function Attrs: mustprogress nounwind uwtable
define hidden noundef i64 @_ZN9CodeCache9page_sizeEbm(i1 noundef zeroext %0, i64 noundef %1) #1 align 2 {
  %3 = alloca i8, align 1
  %4 = alloca i64, align 8
  %5 = zext i1 %0 to i8
  store i8 %5, ptr %3, align 1
  store i64 %1, ptr %4, align 8
  %6 = load i8, ptr %3, align 1
  %7 = trunc i8 %6 to i1
  br i1 %7, label %8, label %12

8:                                                ; preds = %2
  %9 = load i64, ptr @ReservedCodeCacheSize, align 8
  %10 = load i64, ptr %4, align 8
  %11 = call noundef i64 @_ZN2os28page_size_for_region_alignedEmm(i64 noundef %9, i64 noundef %10)
  br label %16

12:                                               ; preds = %2
  %13 = load i64, ptr @ReservedCodeCacheSize, align 8
  %14 = load i64, ptr %4, align 8
  %15 = call noundef i64 @_ZN2os30page_size_for_region_unalignedEmm(i64 noundef %13, i64 noundef %14)
  br label %16

16:                                               ; preds = %12, %8
  %17 = phi i64 [ %11, %8 ], [ %15, %12 ]
  ret i64 %17
}