; Function Attrs: mustprogress nounwind uwtable
define hidden noundef i64 @_ZN9CodeCache9page_sizeEbm(i1 noundef zeroext %0, i64 noundef %1) local_unnamed_addr #1 align 2 {
  %3 = load i64, ptr @ReservedCodeCacheSize, align 8
  br i1 %0, label %4, label %6

4:                                                ; preds = %2
  %5 = tail call noundef i64 @_ZN2os28page_size_for_region_alignedEmm(i64 noundef %3, i64 noundef %1) #20
  br label %8

6:                                                ; preds = %2
  %7 = tail call noundef i64 @_ZN2os30page_size_for_region_unalignedEmm(i64 noundef %3, i64 noundef %1) #20
  br label %8

8:                                                ; preds = %6, %4
  %9 = phi i64 [ %5, %4 ], [ %7, %6 ]
  ret i64 %9
}